; Function Attrs: nounwind uwtable
define range(i32 -22, 1) i32 @CVodeSetStabLimDet(ptr noundef %0, i32 noundef %1) local_unnamed_addr #0 {
  %3 = icmp eq ptr %0, null
  br i1 %3, label %4, label %5

4:                                                ; preds = %2
  tail call void (ptr, i32, ptr, ptr, ptr, ...) @cvProcessError(ptr noundef null, i32 noundef -21, ptr noundef nonnull @.str, ptr noundef nonnull @.str.12, ptr noundef nonnull @.str.2) #6
  br label %12

5:                                                ; preds = %2
  %.not = icmp eq i32 %1, 0
  br i1 %.not, label %10, label %6

6:                                                ; preds = %5
  %7 = getelementptr inbounds nuw i8, ptr %0, i64 24
  %8 = load i32, ptr %7, align 8, !tbaa !28
  %.not8 = icmp eq i32 %8, 2
  br i1 %.not8, label %10, label %9

9:                                                ; preds = %6
  tail call void (ptr, i32, ptr, ptr, ptr, ...) @cvProcessError(ptr noundef nonnull %0, i32 noundef -22, ptr noundef nonnull @.str, ptr noundef nonnull @.str.12, ptr noundef nonnull @.str.13) #6
  br label %12

10:                                               ; preds = %6, %5
  %11 = getelementptr inbounds nuw i8, ptr %0, i64 1848
  store i32 %1, ptr %11, align 8, !tbaa !29
  br label %12

12:                                               ; preds = %10, %9, %4
  %.0 = phi i32 [ -21, %4 ], [ -22, %9 ], [ 0, %10 ]
  ret i32 %.0
}